(lp1
S'http://www.indeed.com/rc/clk?jk=4c90f0c8e8acd6b6'
p2
aS'http://www.indeed.com/rc/clk?jk=39274f532e9d1fea'
p3
aS'http://www.indeed.com/rc/clk?jk=c67174e5f60cefd6'
p4
aS'http://www.indeed.com/rc/clk?jk=fd0eef5298a0c3e7'
p5
aS'http://www.indeed.com/rc/clk?jk=9c7eae7d210245f4'
p6
aS'http://www.indeed.com/rc/clk?jk=02c9c20ac0f5baf3'
p7
aS'http://www.indeed.com/rc/clk?jk=887140fc1c50eb9f'
p8
aS'http://www.indeed.com/rc/clk?jk=9ab6ee52f942b19d'
p9
aS'http://www.indeed.com/rc/clk?jk=9ff80ba3f3423821'
p10
aS'http://www.indeed.com/rc/clk?jk=b879b8f9687cd6d9'
p11
aS'http://www.indeed.com/rc/clk?jk=ffe4e2d815db77d8'
p12
aS'http://www.indeed.com/rc/clk?jk=27311cd0489034b4'
p13
aS'http://www.indeed.com/rc/clk?jk=e43c9598f86fd14a'
p14
aS'http://www.indeed.com/rc/clk?jk=ffe4e2d815db77d8'
p15
aS'http://www.indeed.com/rc/clk?jk=23f9ce2816a934e6'
p16
aS'http://www.indeed.com/rc/clk?jk=234dee71ad30584a'
p17
aS'http://www.indeed.com/rc/clk?jk=c76cce7a951dcac0'
p18
aS'http://www.indeed.com/rc/clk?jk=4a6492aa4da3a5a6'
p19
aS'http://www.indeed.com/rc/clk?jk=1d3b7ea0c9552899'
p20
aS'http://www.indeed.com/rc/clk?jk=44d733959e433c7a'
p21
aS'http://www.indeed.com/rc/clk?jk=370a3c454493c22c'
p22
aS'http://www.indeed.com/rc/clk?jk=5fa6a1dd5494915a'
p23
aS'http://www.indeed.com/rc/clk?jk=6d32f2f15abfff88'
p24
aS'http://www.indeed.com/rc/clk?jk=c76cce7a951dcac0'
p25
aS'http://www.indeed.com/rc/clk?jk=862777f0e4e028f9'
p26
aS'http://www.indeed.com/rc/clk?jk=9d47ec35b7a80c0a'
p27
aS'http://www.indeed.com/rc/clk?jk=1551c8c9448db95b'
p28
aS'http://www.indeed.com/rc/clk?jk=106a0b65395ced8f'
p29
aS'http://www.indeed.com/rc/clk?jk=dc026f8de0ee4e56'
p30
aS'http://www.indeed.com/rc/clk?jk=0356c028be64032f'
p31
aS'http://www.indeed.com/rc/clk?jk=c55b5d830da6714e'
p32
aS'http://www.indeed.com/rc/clk?jk=14fd7621ce9e51cb'
p33
aS'http://www.indeed.com/rc/clk?jk=daf49723a6608bf2'
p34
aS'http://www.indeed.com/rc/clk?jk=ded29bcf6b23eed1'
p35
aS'http://www.indeed.com/rc/clk?jk=ce337bf8392fe16e'
p36
aS'http://www.indeed.com/rc/clk?jk=6f2451b19cce0e2e'
p37
aS'http://www.indeed.com/rc/clk?jk=f215173b026de010'
p38
aS'http://www.indeed.com/rc/clk?jk=26e95313690b849a'
p39
aS'http://www.indeed.com/rc/clk?jk=ad883fedf5b4b026'
p40
aS'http://www.indeed.com/rc/clk?jk=22ac3bbbe4b2a719'
p41
aS'http://www.indeed.com/rc/clk?jk=533c60c73339f75d'
p42
aS'http://www.indeed.com/rc/clk?jk=b9463309aa85f1ec'
p43
aS'http://www.indeed.com/rc/clk?jk=81658b03e73ed5bd'
p44
aS'http://www.indeed.com/rc/clk?jk=6d3e51e2e345651d'
p45
aS'http://www.indeed.com/rc/clk?jk=8813e0cfe4042805'
p46
aS'http://www.indeed.com/rc/clk?jk=5b1f58efbf2e7458'
p47
aS'http://www.indeed.com/rc/clk?jk=58a1fda6cfd9370a'
p48
aS'http://www.indeed.com/rc/clk?jk=1ba421828d59f4e7'
p49
aS'http://www.indeed.com/rc/clk?jk=e6420c63ef5b3830'
p50
aS'http://www.indeed.com/rc/clk?jk=413c57d4936c56ba'
p51
aS'http://www.indeed.com/rc/clk?jk=e1324dfb15306ff4'
p52
aS'http://www.indeed.com/rc/clk?jk=e3d24237cdab6b12'
p53
aS'http://www.indeed.com/rc/clk?jk=2f67f4db111518b2'
p54
aS'http://www.indeed.com/rc/clk?jk=20ad6213601a3cfd'
p55
aS'http://www.indeed.com/rc/clk?jk=a3eebc7f858a37d7'
p56
aS'http://www.indeed.com/rc/clk?jk=5de410a1cbe20631'
p57
aS'http://www.indeed.com/rc/clk?jk=678aaef25a0f82cb'
p58
aS'http://www.indeed.com/rc/clk?jk=a8f3761da61cd5f1'
p59
aS'http://www.indeed.com/rc/clk?jk=55cf6db150144f2f'
p60
aS'http://www.indeed.com/rc/clk?jk=68e42d796952fa28'
p61
aS'http://www.indeed.com/rc/clk?jk=7164cd0a4f6c91eb'
p62
aS'http://www.indeed.com/rc/clk?jk=cacb2a609e2b089d'
p63
aS'http://www.indeed.com/rc/clk?jk=460a39f3056cfb20'
p64
aS'http://www.indeed.com/rc/clk?jk=6e350465dcfcfa3e'
p65
aS'http://www.indeed.com/rc/clk?jk=248e9adb305cdee1'
p66
aS'http://www.indeed.com/rc/clk?jk=49cd928ceb70d647'
p67
aS'http://www.indeed.com/rc/clk?jk=b1c85853744407b2'
p68
aS'http://www.indeed.com/rc/clk?jk=070d7c1918e8053c'
p69
aS'http://www.indeed.com/rc/clk?jk=571f4571e42eeb8b'
p70
aS'http://www.indeed.com/rc/clk?jk=2815e605a77ddea0'
p71
aS'http://www.indeed.com/rc/clk?jk=137732c017292fe4'
p72
aS'http://www.indeed.com/rc/clk?jk=6c25a9036c74d5a8'
p73
aS'http://www.indeed.com/rc/clk?jk=04fced0da28b0c40'
p74
aS'http://www.indeed.com/rc/clk?jk=148ff6dac492d0bb'
p75
aS'http://www.indeed.com/rc/clk?jk=d5df77f1d71c1f28'
p76
aS'http://www.indeed.com/rc/clk?jk=82fcd7323c5888cd'
p77
aS'http://www.indeed.com/rc/clk?jk=e91148ede5ac987e'
p78
aS'http://www.indeed.com/rc/clk?jk=a9aeec4d79a27401'
p79
aS'http://www.indeed.com/rc/clk?jk=c4cc9c6b80f6d38e'
p80
aS'http://www.indeed.com/rc/clk?jk=0b39714d509dd110'
p81
aS'http://www.indeed.com/rc/clk?jk=9165cfbaa3801bd2'
p82
aS'http://www.indeed.com/rc/clk?jk=da0904af56dbd99b'
p83
aS'http://www.indeed.com/rc/clk?jk=1d822f410df21aee'
p84
aS'http://www.indeed.com/rc/clk?jk=bb2b39cd7191c372'
p85
aS'http://www.indeed.com/rc/clk?jk=5113d0a6e9182c7e'
p86
aS'http://www.indeed.com/rc/clk?jk=2a6c47507a9694a5'
p87
aS'http://www.indeed.com/rc/clk?jk=4d59982b13e34713'
p88
aS'http://www.indeed.com/rc/clk?jk=8e223b94c86440aa'
p89
aS'http://www.indeed.com/rc/clk?jk=45e89a248fe79f15'
p90
aS'http://www.indeed.com/rc/clk?jk=83e827c466bc331e'
p91
aS'http://www.indeed.com/rc/clk?jk=a2a7401a660ccc23'
p92
aS'http://www.indeed.com/rc/clk?jk=7a22f109d25db06c'
p93
aS'http://www.indeed.com/rc/clk?jk=0790ecc5f9f68867'
p94
aS'http://www.indeed.com/rc/clk?jk=a51ca5920282f8b0'
p95
aS'http://www.indeed.com/rc/clk?jk=b62fb8dea32993fe'
p96
aS'http://www.indeed.com/rc/clk?jk=097289906026419e'
p97
aS'http://www.indeed.com/rc/clk?jk=6966c7b91974b69f'
p98
aS'http://www.indeed.com/rc/clk?jk=f90982804b2bf788'
p99
aS'http://www.indeed.com/rc/clk?jk=45e89a248fe79f15'
p100
aS'http://www.indeed.com/rc/clk?jk=b62fb8dea32993fe'
p101
aS'http://www.indeed.com/rc/clk?jk=0493462a278221cf'
p102
aS'http://www.indeed.com/rc/clk?jk=00f8dc995e68208a'
p103
aS'http://www.indeed.com/rc/clk?jk=053a821744a21910'
p104
aS'http://www.indeed.com/rc/clk?jk=78c60c0178c7a95c'
p105
aS'http://www.indeed.com/rc/clk?jk=a412956cc98a8f3f'
p106
aS'http://www.indeed.com/rc/clk?jk=4bf81135d40fa97a'
p107
aS'http://www.indeed.com/rc/clk?jk=8d97320310512701'
p108
aS'http://www.indeed.com/rc/clk?jk=f5ea402d565f7c2f'
p109
aS'http://www.indeed.com/rc/clk?jk=2b37372c87313b36'
p110
aS'http://www.indeed.com/rc/clk?jk=3fa19803305b1a3b'
p111
aS'http://www.indeed.com/rc/clk?jk=2974090c60069c84'
p112
aS'http://www.indeed.com/rc/clk?jk=6d35aa1ab4e3e3d1'
p113
aS'http://www.indeed.com/rc/clk?jk=2c9a14371ae42c8b'
p114
aS'http://www.indeed.com/rc/clk?jk=d1872b5a8b378dab'
p115
aS'http://www.indeed.com/rc/clk?jk=5307332c88fadf88'
p116
aS'http://www.indeed.com/rc/clk?jk=0687e2ae0ca57c75'
p117
aS'http://www.indeed.com/rc/clk?jk=8ba609a14d585048'
p118
aS'http://www.indeed.com/rc/clk?jk=d5161113ac43eb26'
p119
aS'http://www.indeed.com/rc/clk?jk=70501e58ca3712f6'
p120
aS'http://www.indeed.com/rc/clk?jk=c4b15cf9faea3ea5'
p121
aS'http://www.indeed.com/rc/clk?jk=00f80d4f1fa54aea'
p122
aS'http://www.indeed.com/rc/clk?jk=5925025d9ace70c4'
p123
aS'http://www.indeed.com/rc/clk?jk=2f297aa1c4e2e956'
p124
aS'http://www.indeed.com/rc/clk?jk=0adfc07903c3226a'
p125
aS'http://www.indeed.com/rc/clk?jk=8c4c60fb3f279096'
p126
aS'http://www.indeed.com/rc/clk?jk=2214d6e0f8400aea'
p127
aS'http://www.indeed.com/rc/clk?jk=331053418a40c3b5'
p128
aS'http://www.indeed.com/rc/clk?jk=1a5f1b8c9da94a35'
p129
aS'http://www.indeed.com/rc/clk?jk=156f1b29fbfe1eb4'
p130
aS'http://www.indeed.com/rc/clk?jk=8721005a659c9e63'
p131
aS'http://www.indeed.com/rc/clk?jk=6f9ef46d89cbe0c5'
p132
aS'http://www.indeed.com/rc/clk?jk=e7511529aafacdd5'
p133
aS'http://www.indeed.com/rc/clk?jk=6540dcf7e9f2bc0d'
p134
aS'http://www.indeed.com/rc/clk?jk=8721005a659c9e63'
p135
aS'http://www.indeed.com/rc/clk?jk=c917fba3fc4ca7fe'
p136
aS'http://www.indeed.com/rc/clk?jk=331053418a40c3b5'
p137
aS'http://www.indeed.com/rc/clk?jk=674f387d3d186aa0'
p138
aS'http://www.indeed.com/rc/clk?jk=f7dc80e367a76b48'
p139
aS'http://www.indeed.com/rc/clk?jk=cebb5f8599ed29cc'
p140
aS'http://www.indeed.com/rc/clk?jk=8a1f62141c18cc37'
p141
aS'http://www.indeed.com/rc/clk?jk=73e5f65421a2dcac'
p142
aS'http://www.indeed.com/rc/clk?jk=5e567c1d866ef118'
p143
aS'http://www.indeed.com/rc/clk?jk=008fd510007ed66d'
p144
aS'http://www.indeed.com/rc/clk?jk=22a5b3a7218ad25a'
p145
aS'http://www.indeed.com/rc/clk?jk=0e4dd3bb0b1e64ee'
p146
aS'http://www.indeed.com/rc/clk?jk=8d21226ac874a029'
p147
aS'http://www.indeed.com/rc/clk?jk=63eeb733a665f7a8'
p148
aS'http://www.indeed.com/rc/clk?jk=6f449ef126d497d5'
p149
aS'http://www.indeed.com/rc/clk?jk=9a1601abf456a7bd'
p150
aS'http://www.indeed.com/rc/clk?jk=5db6909101625be9'
p151
aS'http://www.indeed.com/rc/clk?jk=167339f2f7ac6b52'
p152
aS'http://www.indeed.com/rc/clk?jk=66c53b886210f91c'
p153
aS'http://www.indeed.com/rc/clk?jk=58441711e5517eab'
p154
aS'http://www.indeed.com/rc/clk?jk=f91e9085d9c6937b'
p155
aS'http://www.indeed.com/rc/clk?jk=c9cd01b7664b33b4'
p156
aS'http://www.indeed.com/rc/clk?jk=40e052fd37754a54'
p157
aS'http://www.indeed.com/rc/clk?jk=9320c14ca41b2558'
p158
aS'http://www.indeed.com/rc/clk?jk=069027c3495921ab'
p159
aS'http://www.indeed.com/rc/clk?jk=fdb2da8b0749a92f'
p160
aS'http://www.indeed.com/rc/clk?jk=e746dd2cf401c9df'
p161
aS'http://www.indeed.com/rc/clk?jk=3db37228eef93200'
p162
aS'http://www.indeed.com/rc/clk?jk=1b111bfefe0149e4'
p163
aS'http://www.indeed.com/rc/clk?jk=dc71b148b129ddd3'
p164
aS'http://www.indeed.com/rc/clk?jk=475aedc9b30242e4'
p165
aS'http://www.indeed.com/rc/clk?jk=8b4fcb0bcfa5c231'
p166
aS'http://www.indeed.com/rc/clk?jk=a0acbfc3b6d6d0bd'
p167
aS'http://www.indeed.com/rc/clk?jk=38236ea7ed9c67a8'
p168
aS'http://www.indeed.com/rc/clk?jk=47a748ac8739941d'
p169
aS'http://www.indeed.com/rc/clk?jk=e82d633f5de240fa'
p170
aS'http://www.indeed.com/rc/clk?jk=d43b715a7d0c7767'
p171
aS'http://www.indeed.com/rc/clk?jk=97da99080aaa0c8c'
p172
aS'http://www.indeed.com/rc/clk?jk=3aec25bbc23d60ec'
p173
aS'http://www.indeed.com/rc/clk?jk=838d93cbdde82bc3'
p174
aS'http://www.indeed.com/rc/clk?jk=e473273eb11ee7b7'
p175
aS'http://www.indeed.com/rc/clk?jk=77be2b9c3776bd7c'
p176
aS'http://www.indeed.com/rc/clk?jk=04fced0da28b0c40'
p177
aS'http://www.indeed.com/rc/clk?jk=4926422a88371c0e'
p178
aS'http://www.indeed.com/rc/clk?jk=b329fd7c2f7ea44a'
p179
aS'http://www.indeed.com/rc/clk?jk=431d3cf857acd833'
p180
aS'http://www.indeed.com/rc/clk?jk=12dde276674f309f'
p181
aS'http://www.indeed.com/rc/clk?jk=b25fd3535f0baa46'
p182
aS'http://www.indeed.com/rc/clk?jk=7892a6b7668fdb82'
p183
aS'http://www.indeed.com/rc/clk?jk=c52c06ba53adf2c3'
p184
aS'http://www.indeed.com/rc/clk?jk=9db2d5e1af5ea478'
p185
aS'http://www.indeed.com/rc/clk?jk=ad44ca3e54f1cee8'
p186
aS'http://www.indeed.com/rc/clk?jk=9c0a1681624ede18'
p187
aS'http://www.indeed.com/rc/clk?jk=4e4a43432ecf2b72'
p188
aS'http://www.indeed.com/rc/clk?jk=0e94b7d88d572109'
p189
aS'http://www.indeed.com/rc/clk?jk=30be4de1c9af1070'
p190
aS'http://www.indeed.com/rc/clk?jk=da0089dde077d409'
p191
aS'http://www.indeed.com/rc/clk?jk=2fddf434d2907b6d'
p192
aS'http://www.indeed.com/rc/clk?jk=76232f726763fe5e'
p193
aS'http://www.indeed.com/rc/clk?jk=822a8942b99c2cee'
p194
aS'http://www.indeed.com/rc/clk?jk=c81c8606739e9bc4'
p195
aS'http://www.indeed.com/rc/clk?jk=d1ae44fa5aed8144'
p196
aS'http://www.indeed.com/rc/clk?jk=7b0284d2318a3877'
p197
aS'http://www.indeed.com/rc/clk?jk=937bf2ba86039bc0'
p198
aS'http://www.indeed.com/rc/clk?jk=f8300299faec0125'
p199
aS'http://www.indeed.com/rc/clk?jk=84037473020562a8'
p200
aS'http://www.indeed.com/rc/clk?jk=936d8b8ef33b8c05'
p201
aS'http://www.indeed.com/rc/clk?jk=1d446f7c7756f161'
p202
aS'http://www.indeed.com/rc/clk?jk=cc182c3263282823'
p203
aS'http://www.indeed.com/rc/clk?jk=c6b04df2849b95cc'
p204
aS'http://www.indeed.com/rc/clk?jk=222499f7e79106b7'
p205
aS'http://www.indeed.com/rc/clk?jk=412032801e94d89b'
p206
aS'http://www.indeed.com/rc/clk?jk=b9fa36cc2b75f4ff'
p207
aS'http://www.indeed.com/rc/clk?jk=6a679fe9322bd949'
p208
aS'http://www.indeed.com/rc/clk?jk=05f98236f39c2d8f'
p209
aS'http://www.indeed.com/rc/clk?jk=aeac3233e3a0c599'
p210
aS'http://www.indeed.com/rc/clk?jk=246268567d10782e'
p211
aS'http://www.indeed.com/rc/clk?jk=08b52b3cb129c900'
p212
aS'http://www.indeed.com/rc/clk?jk=033639b5f6d0a390'
p213
aS'http://www.indeed.com/rc/clk?jk=955ec91178968b4f'
p214
aS'http://www.indeed.com/rc/clk?jk=293026ccd209a6e8'
p215
aS'http://www.indeed.com/rc/clk?jk=4822de59cf677326'
p216
aS'http://www.indeed.com/rc/clk?jk=68b165942a34f8ea'
p217
aS'http://www.indeed.com/rc/clk?jk=273e6c824b47429b'
p218
aS'http://www.indeed.com/rc/clk?jk=332deeb5c4634e4d'
p219
aS'http://www.indeed.com/rc/clk?jk=ce697b6c1eafabe6'
p220
aS'http://www.indeed.com/rc/clk?jk=ab66b512a5684c88'
p221
aS'http://www.indeed.com/rc/clk?jk=ca20eb1198609dbf'
p222
aS'http://www.indeed.com/rc/clk?jk=8289720cbac13f43'
p223
aS'http://www.indeed.com/rc/clk?jk=2937e0b40ce65034'
p224
aS'http://www.indeed.com/rc/clk?jk=0fbcdcfd8ee648a5'
p225
aS'http://www.indeed.com/rc/clk?jk=951890062b7b6e27'
p226
aS'http://www.indeed.com/rc/clk?jk=9cdfa1178358188a'
p227
aS'http://www.indeed.com/rc/clk?jk=302ab3a42653d4f9'
p228
aS'http://www.indeed.com/rc/clk?jk=679ab791ca2ecadf'
p229
aS'http://www.indeed.com/rc/clk?jk=2ee87426c7e45b75'
p230
aS'http://www.indeed.com/rc/clk?jk=fba9760da131c91a'
p231
aS'http://www.indeed.com/rc/clk?jk=a24323e796cf8506'
p232
aS'http://www.indeed.com/rc/clk?jk=acf6d3ae0cf990a2'
p233
aS'http://www.indeed.com/rc/clk?jk=0be02c6d431c8b46'
p234
aS'http://www.indeed.com/rc/clk?jk=cd5524fe2b4be2d3'
p235
aS'http://www.indeed.com/rc/clk?jk=146099d3dc6dcb48'
p236
aS'http://www.indeed.com/rc/clk?jk=08f69b32120224f3'
p237
aS'http://www.indeed.com/rc/clk?jk=21a57974c1ac10bf'
p238
aS'http://www.indeed.com/rc/clk?jk=0bd894a7d3e6ac6b'
p239
aS'http://www.indeed.com/rc/clk?jk=f01a39f9d165eaca'
p240
aS'http://www.indeed.com/rc/clk?jk=1b924741d161fc6e'
p241
a.